target datalayout = "e-m:e-p270:32:32-p271:32:32-p272:64:64-i64:64-i128:128-f80:128-n8:16:32:64-S128"
target triple = "x86_64-pc-linux-gnu"

%"struct.XDR::xdr_ops" = type { ptr, ptr, ptr, ptr, ptr, ptr, ptr, ptr, ptr, ptr }
%struct.XDR = type { i32, ptr, ptr, ptr, ptr, i32 }

; Function Attrs: mustprogress uwtable
define noundef i32 @_Z9xdr_u_intP3XDRPj(ptr noundef %0, ptr noundef %1) #0 {
  %3 = alloca i32, align 4
  %4 = alloca ptr, align 8
  %5 = alloca ptr, align 8
  %6 = alloca i32, align 4
  store ptr %0, ptr %4, align 8
  store ptr %1, ptr %5, align 8
  %7 = load ptr, ptr %4, align 8
  %8 = getelementptr inbounds %struct.XDR, ptr %7, i32 0, i32 0
  %9 = load i32, ptr %8, align 8
  switch i32 %9, label %34 [
    i32 0, label %10
    i32 1, label %20
    i32 2, label %33
  ]

10:                                               ; preds = %2
  %11 = load ptr, ptr %5, align 8
  %12 = load i32, ptr %11, align 4
  store i32 %12, ptr %6, align 4
  %13 = load ptr, ptr %4, align 8
  %14 = getelementptr inbounds %struct.XDR, ptr %13, i32 0, i32 1
  %15 = load ptr, ptr %14, align 8
  %16 = getelementptr inbounds %"struct.XDR::xdr_ops", ptr %15, i32 0, i32 9
  %17 = load ptr, ptr %16, align 8
  %18 = load ptr, ptr %4, align 8
  %19 = call noundef i32 %17(ptr noundef %18, ptr noundef %6)
  store i32 %19, ptr %3, align 4
  br label %35

20:                                               ; preds = %2
  %21 = load ptr, ptr %4, align 8
  %22 = getelementptr inbounds %struct.XDR, ptr %21, i32 0, i32 1
  %23 = load ptr, ptr %22, align 8
  %24 = getelementptr inbounds %"struct.XDR::xdr_ops", ptr %23, i32 0, i32 8
  %25 = load ptr, ptr %24, align 8
  %26 = load ptr, ptr %4, align 8
  %27 = call noundef i32 %25(ptr noundef %26, ptr noundef %6)
  %28 = icmp ne i32 %27, 0
  br i1 %28, label %30, label %29

29:                                               ; preds = %20
  store i32 0, ptr %3, align 4
  br label %35

30:                                               ; preds = %20
  %31 = load i32, ptr %6, align 4
  %32 = load ptr, ptr %5, align 8
  store i32 %31, ptr %32, align 4
  store i32 1, ptr %3, align 4
  br label %35

33:                                               ; preds = %2
  store i32 1, ptr %3, align 4
  br label %35

34:                                               ; preds = %2
  store i32 0, ptr %3, align 4
  br label %35

35:                                               ; preds = %34, %33, %30, %29, %10
  %36 = load i32, ptr %3, align 4
  ret i32 %36
}